target datalayout = "e-m:e-p270:32:32-p271:32:32-p272:64:64-i64:64-i128:128-f80:128-n8:16:32:64-S128"
target triple = "x86_64-pc-linux-gnu"

%struct.archive_read_filter = type { i64, ptr, ptr, ptr, ptr, ptr, ptr, i32, i32, i32, ptr, i64, ptr, i64, ptr, i64, ptr, i64, i8, i8, i8 }
%struct.archive_read = type { %struct.archive, ptr, i32, i64, i64, %struct.archive_read_client, [16 x %struct.archive_read_filter_bidder], ptr, i32, i64, i32, i32, [16 x %struct.archive_format_descriptor], ptr, ptr, ptr, %struct.anon }
%struct.archive = type { i32, i32, ptr, i32, ptr, i32, i32, ptr, %struct.archive_string, ptr, i32, i32, ptr, ptr, i64, i64, i64, i8, i64 }
%struct.archive_string = type { ptr, i64, i64 }
%struct.archive_read_client = type { ptr, ptr, ptr, ptr, ptr, ptr, i32, i32, i64, ptr }
%struct.archive_read_filter_bidder = type { ptr, ptr, ptr }
%struct.archive_format_descriptor = type { ptr, ptr, ptr, ptr, ptr, ptr, ptr, ptr, ptr, ptr, ptr }
%struct.anon = type { ptr, ptr, i32, ptr, ptr }
%struct.private_data = type { ptr, i64, i64, i32, i32, i64, i64, ptr, i32, i32, i32, i32, i32, i32, i32, i32, i32, [65536 x i8], [65536 x i16], ptr, [65300 x i8] }

@.str.2 = private unnamed_addr constant [24 x i8] c"Invalid compressed data\00", align 1
@next_code.debug_buff = internal global [1024 x i32] zeroinitializer, align 16
@next_code.debug_index = internal global i32 0, align 4

; Function Attrs: nounwind uwtable
define internal i32 @next_code(ptr noundef %0) #0 {
  %2 = alloca i32, align 4
  %3 = alloca ptr, align 8
  %4 = alloca ptr, align 8
  %5 = alloca i32, align 4
  %6 = alloca i32, align 4
  %7 = alloca i32, align 4
  store ptr %0, ptr %3, align 8
  %8 = load ptr, ptr %3, align 8
  %9 = getelementptr inbounds %struct.archive_read_filter, ptr %8, i32 0, i32 5
  %10 = load ptr, ptr %9, align 8
  store ptr %10, ptr %4, align 8
  %11 = load ptr, ptr %3, align 8
  %12 = load ptr, ptr %4, align 8
  %13 = getelementptr inbounds %struct.private_data, ptr %12, i32 0, i32 13
  %14 = load i32, ptr %13, align 4
  %15 = call i32 @getbits(ptr noundef %11, i32 noundef %14)
  store i32 %15, ptr %6, align 4
  store i32 %15, ptr %5, align 4
  %16 = load i32, ptr %5, align 4
  %17 = icmp slt i32 %16, 0
  br i1 %17, label %18, label %20

18:                                               ; preds = %1
  %19 = load i32, ptr %5, align 4
  store i32 %19, ptr %2, align 4
  br label %238

20:                                               ; preds = %1
  %21 = load i32, ptr %5, align 4
  %22 = load i32, ptr @next_code.debug_index, align 4
  %23 = add i32 %22, 1
  store i32 %23, ptr @next_code.debug_index, align 4
  %24 = zext i32 %22 to i64
  %25 = getelementptr inbounds [1024 x i32], ptr @next_code.debug_buff, i64 0, i64 %24
  store i32 %21, ptr %25, align 4
  %26 = load i32, ptr @next_code.debug_index, align 4
  %27 = zext i32 %26 to i64
  %28 = icmp uge i64 %27, 1024
  br i1 %28, label %29, label %30

29:                                               ; preds = %20
  store i32 0, ptr @next_code.debug_index, align 4
  br label %30

30:                                               ; preds = %29, %20
  %31 = load i32, ptr %5, align 4
  %32 = icmp eq i32 %31, 256
  br i1 %32, label %33, label %90

33:                                               ; preds = %30
  %34 = load ptr, ptr %4, align 8
  %35 = getelementptr inbounds %struct.private_data, ptr %34, i32 0, i32 8
  %36 = load i32, ptr %35, align 8
  %37 = icmp ne i32 %36, 0
  br i1 %37, label %38, label %90

38:                                               ; preds = %33
  %39 = load ptr, ptr %4, align 8
  %40 = getelementptr inbounds %struct.private_data, ptr %39, i32 0, i32 13
  %41 = load i32, ptr %40, align 4
  %42 = sext i32 %41 to i64
  %43 = load ptr, ptr %4, align 8
  %44 = getelementptr inbounds %struct.private_data, ptr %43, i32 0, i32 5
  %45 = load i64, ptr %44, align 8
  %46 = load ptr, ptr %4, align 8
  %47 = getelementptr inbounds %struct.private_data, ptr %46, i32 0, i32 13
  %48 = load i32, ptr %47, align 4
  %49 = sext i32 %48 to i64
  %50 = urem i64 %45, %49
  %51 = sub i64 %42, %50
  %52 = trunc i64 %51 to i32
  store i32 %52, ptr %7, align 4
  %53 = load ptr, ptr %4, align 8
  %54 = getelementptr inbounds %struct.private_data, ptr %53, i32 0, i32 13
  %55 = load i32, ptr %54, align 4
  %56 = load i32, ptr %7, align 4
  %57 = srem i32 %56, %55
  store i32 %57, ptr %7, align 4
  %58 = load ptr, ptr %4, align 8
  %59 = getelementptr inbounds %struct.private_data, ptr %58, i32 0, i32 4
  store i32 0, ptr %59, align 4
  br label %60

60:                                               ; preds = %71, %38
  %61 = load i32, ptr %7, align 4
  %62 = add nsw i32 %61, -1
  store i32 %62, ptr %7, align 4
  %63 = icmp sgt i32 %61, 0
  br i1 %63, label %64, label %72

64:                                               ; preds = %60
  %65 = load ptr, ptr %3, align 8
  %66 = call i32 @getbits(ptr noundef %65, i32 noundef 8)
  store i32 %66, ptr %5, align 4
  %67 = load i32, ptr %5, align 4
  %68 = icmp slt i32 %67, 0
  br i1 %68, label %69, label %71

69:                                               ; preds = %64
  %70 = load i32, ptr %5, align 4
  store i32 %70, ptr %2, align 4
  br label %238

71:                                               ; preds = %64
  br label %60, !llvm.loop !8

72:                                               ; preds = %60
  %73 = load ptr, ptr %4, align 8
  %74 = getelementptr inbounds %struct.private_data, ptr %73, i32 0, i32 5
  store i64 0, ptr %74, align 8
  %75 = load ptr, ptr %4, align 8
  %76 = getelementptr inbounds %struct.private_data, ptr %75, i32 0, i32 13
  store i32 9, ptr %76, align 4
  %77 = load ptr, ptr %4, align 8
  %78 = getelementptr inbounds %struct.private_data, ptr %77, i32 0, i32 13
  %79 = load i32, ptr %78, align 4
  %80 = shl i32 1, %79
  %81 = sub nsw i32 %80, 1
  %82 = load ptr, ptr %4, align 8
  %83 = getelementptr inbounds %struct.private_data, ptr %82, i32 0, i32 12
  store i32 %81, ptr %83, align 8
  %84 = load ptr, ptr %4, align 8
  %85 = getelementptr inbounds %struct.private_data, ptr %84, i32 0, i32 16
  store i32 257, ptr %85, align 8
  %86 = load ptr, ptr %4, align 8
  %87 = getelementptr inbounds %struct.private_data, ptr %86, i32 0, i32 14
  store i32 -1, ptr %87, align 8
  %88 = load ptr, ptr %3, align 8
  %89 = call i32 @next_code(ptr noundef %88)
  store i32 %89, ptr %2, align 4
  br label %238

90:                                               ; preds = %33, %30
  %91 = load i32, ptr %5, align 4
  %92 = load ptr, ptr %4, align 8
  %93 = getelementptr inbounds %struct.private_data, ptr %92, i32 0, i32 16
  %94 = load i32, ptr %93, align 8
  %95 = icmp sgt i32 %91, %94
  br i1 %95, label %107, label %96

96:                                               ; preds = %90
  %97 = load i32, ptr %5, align 4
  %98 = load ptr, ptr %4, align 8
  %99 = getelementptr inbounds %struct.private_data, ptr %98, i32 0, i32 16
  %100 = load i32, ptr %99, align 8
  %101 = icmp eq i32 %97, %100
  br i1 %101, label %102, label %112

102:                                              ; preds = %96
  %103 = load ptr, ptr %4, align 8
  %104 = getelementptr inbounds %struct.private_data, ptr %103, i32 0, i32 14
  %105 = load i32, ptr %104, align 8
  %106 = icmp slt i32 %105, 0
  br i1 %106, label %107, label %112

107:                                              ; preds = %102, %90
  %108 = load ptr, ptr %3, align 8
  %109 = getelementptr inbounds %struct.archive_read_filter, ptr %108, i32 0, i32 3
  %110 = load ptr, ptr %109, align 8
  %111 = getelementptr inbounds %struct.archive_read, ptr %110, i32 0, i32 0
  call void (ptr, i32, ptr, ...) @archive_set_error(ptr noundef %111, i32 noundef -1, ptr noundef @.str.2)
  store i32 -30, ptr %2, align 4
  br label %238

112:                                              ; preds = %102, %96
  %113 = load i32, ptr %5, align 4
  %114 = load ptr, ptr %4, align 8
  %115 = getelementptr inbounds %struct.private_data, ptr %114, i32 0, i32 16
  %116 = load i32, ptr %115, align 8
  %117 = icmp sge i32 %113, %116
  br i1 %117, label %118, label %130

118:                                              ; preds = %112
  %119 = load ptr, ptr %4, align 8
  %120 = getelementptr inbounds %struct.private_data, ptr %119, i32 0, i32 15
  %121 = load i32, ptr %120, align 4
  %122 = trunc i32 %121 to i8
  %123 = load ptr, ptr %4, align 8
  %124 = getelementptr inbounds %struct.private_data, ptr %123, i32 0, i32 19
  %125 = load ptr, ptr %124, align 8
  %126 = getelementptr inbounds i8, ptr %125, i32 1
  store ptr %126, ptr %124, align 8
  store i8 %122, ptr %125, align 1
  %127 = load ptr, ptr %4, align 8
  %128 = getelementptr inbounds %struct.private_data, ptr %127, i32 0, i32 14
  %129 = load i32, ptr %128, align 8
  store i32 %129, ptr %5, align 4
  br label %130

130:                                              ; preds = %118, %112
  br label %131

131:                                              ; preds = %134, %130
  %132 = load i32, ptr %5, align 4
  %133 = icmp sge i32 %132, 256
  br i1 %133, label %134, label %152

134:                                              ; preds = %131
  %135 = load ptr, ptr %4, align 8
  %136 = getelementptr inbounds %struct.private_data, ptr %135, i32 0, i32 17
  %137 = load i32, ptr %5, align 4
  %138 = sext i32 %137 to i64
  %139 = getelementptr inbounds [65536 x i8], ptr %136, i64 0, i64 %138
  %140 = load i8, ptr %139, align 1
  %141 = load ptr, ptr %4, align 8
  %142 = getelementptr inbounds %struct.private_data, ptr %141, i32 0, i32 19
  %143 = load ptr, ptr %142, align 8
  %144 = getelementptr inbounds i8, ptr %143, i32 1
  store ptr %144, ptr %142, align 8
  store i8 %140, ptr %143, align 1
  %145 = load ptr, ptr %4, align 8
  %146 = getelementptr inbounds %struct.private_data, ptr %145, i32 0, i32 18
  %147 = load i32, ptr %5, align 4
  %148 = sext i32 %147 to i64
  %149 = getelementptr inbounds [65536 x i16], ptr %146, i64 0, i64 %148
  %150 = load i16, ptr %149, align 2
  %151 = zext i16 %150 to i32
  store i32 %151, ptr %5, align 4
  br label %131, !llvm.loop !9

152:                                              ; preds = %131
  %153 = load i32, ptr %5, align 4
  %154 = load ptr, ptr %4, align 8
  %155 = getelementptr inbounds %struct.private_data, ptr %154, i32 0, i32 15
  store i32 %153, ptr %155, align 4
  %156 = trunc i32 %153 to i8
  %157 = load ptr, ptr %4, align 8
  %158 = getelementptr inbounds %struct.private_data, ptr %157, i32 0, i32 19
  %159 = load ptr, ptr %158, align 8
  %160 = getelementptr inbounds i8, ptr %159, i32 1
  store ptr %160, ptr %158, align 8
  store i8 %156, ptr %159, align 1
  %161 = load ptr, ptr %4, align 8
  %162 = getelementptr inbounds %struct.private_data, ptr %161, i32 0, i32 16
  %163 = load i32, ptr %162, align 8
  store i32 %163, ptr %5, align 4
  %164 = load i32, ptr %5, align 4
  %165 = load ptr, ptr %4, align 8
  %166 = getelementptr inbounds %struct.private_data, ptr %165, i32 0, i32 10
  %167 = load i32, ptr %166, align 8
  %168 = icmp slt i32 %164, %167
  br i1 %168, label %169, label %197

169:                                              ; preds = %152
  %170 = load ptr, ptr %4, align 8
  %171 = getelementptr inbounds %struct.private_data, ptr %170, i32 0, i32 14
  %172 = load i32, ptr %171, align 8
  %173 = icmp sge i32 %172, 0
  br i1 %173, label %174, label %197

174:                                              ; preds = %169
  %175 = load ptr, ptr %4, align 8
  %176 = getelementptr inbounds %struct.private_data, ptr %175, i32 0, i32 14
  %177 = load i32, ptr %176, align 8
  %178 = trunc i32 %177 to i16
  %179 = load ptr, ptr %4, align 8
  %180 = getelementptr inbounds %struct.private_data, ptr %179, i32 0, i32 18
  %181 = load i32, ptr %5, align 4
  %182 = sext i32 %181 to i64
  %183 = getelementptr inbounds [65536 x i16], ptr %180, i64 0, i64 %182
  store i16 %178, ptr %183, align 2
  %184 = load ptr, ptr %4, align 8
  %185 = getelementptr inbounds %struct.private_data, ptr %184, i32 0, i32 15
  %186 = load i32, ptr %185, align 4
  %187 = trunc i32 %186 to i8
  %188 = load ptr, ptr %4, align 8
  %189 = getelementptr inbounds %struct.private_data, ptr %188, i32 0, i32 17
  %190 = load i32, ptr %5, align 4
  %191 = sext i32 %190 to i64
  %192 = getelementptr inbounds [65536 x i8], ptr %189, i64 0, i64 %191
  store i8 %187, ptr %192, align 1
  %193 = load ptr, ptr %4, align 8
  %194 = getelementptr inbounds %struct.private_data, ptr %193, i32 0, i32 16
  %195 = load i32, ptr %194, align 8
  %196 = add nsw i32 %195, 1
  store i32 %196, ptr %194, align 8
  br label %197

197:                                              ; preds = %174, %169, %152
  %198 = load ptr, ptr %4, align 8
  %199 = getelementptr inbounds %struct.private_data, ptr %198, i32 0, i32 16
  %200 = load i32, ptr %199, align 8
  %201 = load ptr, ptr %4, align 8
  %202 = getelementptr inbounds %struct.private_data, ptr %201, i32 0, i32 12
  %203 = load i32, ptr %202, align 8
  %204 = icmp sgt i32 %200, %203
  br i1 %204, label %205, label %234

205:                                              ; preds = %197
  %206 = load ptr, ptr %4, align 8
  %207 = getelementptr inbounds %struct.private_data, ptr %206, i32 0, i32 13
  %208 = load i32, ptr %207, align 4
  %209 = add nsw i32 %208, 1
  store i32 %209, ptr %207, align 4
  %210 = load ptr, ptr %4, align 8
  %211 = getelementptr inbounds %struct.private_data, ptr %210, i32 0, i32 5
  store i64 0, ptr %211, align 8
  %212 = load ptr, ptr %4, align 8
  %213 = getelementptr inbounds %struct.private_data, ptr %212, i32 0, i32 13
  %214 = load i32, ptr %213, align 4
  %215 = load ptr, ptr %4, align 8
  %216 = getelementptr inbounds %struct.private_data, ptr %215, i32 0, i32 11
  %217 = load i32, ptr %216, align 4
  %218 = icmp eq i32 %214, %217
  br i1 %218, label %219, label %225

219:                                              ; preds = %205
  %220 = load ptr, ptr %4, align 8
  %221 = getelementptr inbounds %struct.private_data, ptr %220, i32 0, i32 10
  %222 = load i32, ptr %221, align 8
  %223 = load ptr, ptr %4, align 8
  %224 = getelementptr inbounds %struct.private_data, ptr %223, i32 0, i32 12
  store i32 %222, ptr %224, align 8
  br label %233

225:                                              ; preds = %205
  %226 = load ptr, ptr %4, align 8
  %227 = getelementptr inbounds %struct.private_data, ptr %226, i32 0, i32 13
  %228 = load i32, ptr %227, align 4
  %229 = shl i32 1, %228
  %230 = sub nsw i32 %229, 1
  %231 = load ptr, ptr %4, align 8
  %232 = getelementptr inbounds %struct.private_data, ptr %231, i32 0, i32 12
  store i32 %230, ptr %232, align 8
  br label %233

233:                                              ; preds = %225, %219
  br label %234

234:                                              ; preds = %233, %197
  %235 = load i32, ptr %6, align 4
  %236 = load ptr, ptr %4, align 8
  %237 = getelementptr inbounds %struct.private_data, ptr %236, i32 0, i32 14
  store i32 %235, ptr %237, align 8
  store i32 0, ptr %2, align 4
  br label %238

238:                                              ; preds = %234, %107, %72, %69, %18
  %239 = load i32, ptr %2, align 4
  ret i32 %239
}