; Function Attrs: nounwind uwtable
define internal fastcc range(i32 -2147483648, 1) i32 @next_code(ptr noundef readonly captures(none) %0) unnamed_addr #0 {
  %2 = getelementptr inbounds nuw i8, ptr %0, i64 40
  %3 = load ptr, ptr %2, align 8
  %4 = getelementptr inbounds nuw i8, ptr %3, i64 76
  %5 = load i32, ptr %4, align 4
  %6 = tail call fastcc i32 @getbits(ptr noundef %0, i32 noundef %5)
  %7 = icmp slt i32 %6, 0
  br i1 %7, label %.loopexit, label %.lr.ph

.lr.ph:                                           ; preds = %1, %tailrecurse
  %8 = phi i32 [ %40, %tailrecurse ], [ %6, %1 ]
  %9 = phi ptr [ %38, %tailrecurse ], [ %4, %1 ]
  %10 = phi ptr [ %37, %tailrecurse ], [ %3, %1 ]
  %11 = load i32, ptr @next_code.debug_index, align 4
  %12 = add i32 %11, 1
  %13 = icmp ugt i32 %12, 1023
  %spec.select = select i1 %13, i32 0, i32 %12
  store i32 %spec.select, ptr @next_code.debug_index, align 4
  %14 = icmp eq i32 %8, 256
  br i1 %14, label %15, label %42

15:                                               ; preds = %.lr.ph
  %16 = getelementptr inbounds nuw i8, ptr %10, i64 56
  %17 = load i32, ptr %16, align 8
  %.not = icmp eq i32 %17, 0
  br i1 %.not, label %42, label %18

18:                                               ; preds = %15
  %19 = load i32, ptr %9, align 4
  %20 = sext i32 %19 to i64
  %21 = getelementptr inbounds nuw i8, ptr %10, i64 32
  %22 = load i64, ptr %21, align 8
  %23 = urem i64 %22, %20
  %24 = trunc i64 %23 to i32
  %25 = sub i32 %19, %24
  %26 = srem i32 %25, %19
  %27 = getelementptr inbounds nuw i8, ptr %10, i64 28
  store i32 0, ptr %27, align 4
  br label %28

28:                                               ; preds = %30, %18
  %.0 = phi i32 [ %26, %18 ], [ %31, %30 ]
  %29 = icmp sgt i32 %.0, 0
  br i1 %29, label %30, label %tailrecurse

30:                                               ; preds = %28
  %31 = add nsw i32 %.0, -1
  %32 = tail call fastcc i32 @getbits(ptr noundef %0, i32 noundef 8)
  %33 = icmp slt i32 %32, 0
  br i1 %33, label %.loopexit, label %28, !llvm.loop !8

tailrecurse:                                      ; preds = %28
  store i64 0, ptr %21, align 8
  store i32 9, ptr %9, align 4
  %34 = getelementptr inbounds nuw i8, ptr %10, i64 72
  store i32 511, ptr %34, align 8
  %35 = getelementptr inbounds nuw i8, ptr %10, i64 88
  store i32 257, ptr %35, align 8
  %36 = getelementptr inbounds nuw i8, ptr %10, i64 80
  store i32 -1, ptr %36, align 8
  %37 = load ptr, ptr %2, align 8
  %38 = getelementptr inbounds nuw i8, ptr %37, i64 76
  %39 = load i32, ptr %38, align 4
  %40 = tail call fastcc i32 @getbits(ptr noundef %0, i32 noundef %39)
  %41 = icmp slt i32 %40, 0
  br i1 %41, label %.loopexit, label %.lr.ph

42:                                               ; preds = %15, %.lr.ph
  %43 = getelementptr inbounds nuw i8, ptr %10, i64 88
  %44 = load i32, ptr %43, align 8
  %45 = icmp sgt i32 %8, %44
  br i1 %45, label %52, label %46

46:                                               ; preds = %42
  %47 = icmp eq i32 %8, %44
  br i1 %47, label %48, label %55

48:                                               ; preds = %46
  %49 = getelementptr inbounds nuw i8, ptr %10, i64 80
  %50 = load i32, ptr %49, align 8
  %51 = icmp slt i32 %50, 0
  br i1 %51, label %52, label %55

52:                                               ; preds = %48, %42
  %53 = getelementptr inbounds nuw i8, ptr %0, i64 24
  %54 = load ptr, ptr %53, align 8
  tail call void (ptr, i32, ptr, ...) @archive_set_error(ptr noundef %54, i32 noundef -1, ptr noundef nonnull @.str.2) #6
  br label %.loopexit

55:                                               ; preds = %48, %46
  %.not77 = icmp samesign ult i32 %8, %44
  br i1 %.not77, label %65, label %56

56:                                               ; preds = %55
  %57 = getelementptr inbounds nuw i8, ptr %10, i64 84
  %58 = load i32, ptr %57, align 4
  %59 = trunc i32 %58 to i8
  %60 = getelementptr inbounds nuw i8, ptr %10, i64 196704
  %61 = load ptr, ptr %60, align 8
  %62 = getelementptr inbounds nuw i8, ptr %61, i64 1
  store ptr %62, ptr %60, align 8
  store i8 %59, ptr %61, align 1
  %63 = getelementptr inbounds nuw i8, ptr %10, i64 80
  %64 = load i32, ptr %63, align 8
  br label %65

65:                                               ; preds = %56, %55
  %.069 = phi i32 [ %64, %56 ], [ %8, %55 ]
  %66 = icmp sgt i32 %.069, 255
  br i1 %66, label %.lr.ph89, label %._crit_edge

.lr.ph89:                                         ; preds = %65
  %67 = getelementptr inbounds nuw i8, ptr %10, i64 92
  %68 = getelementptr inbounds nuw i8, ptr %10, i64 196704
  %69 = getelementptr inbounds nuw i8, ptr %10, i64 65628
  br label %70

70:                                               ; preds = %.lr.ph89, %70
  %.188 = phi i32 [ %.069, %.lr.ph89 ], [ %78, %70 ]
  %71 = zext nneg i32 %.188 to i64
  %72 = getelementptr inbounds nuw [65536 x i8], ptr %67, i64 0, i64 %71
  %73 = load i8, ptr %72, align 1
  %74 = load ptr, ptr %68, align 8
  %75 = getelementptr inbounds nuw i8, ptr %74, i64 1
  store ptr %75, ptr %68, align 8
  store i8 %73, ptr %74, align 1
  %76 = getelementptr inbounds nuw [65536 x i16], ptr %69, i64 0, i64 %71
  %77 = load i16, ptr %76, align 2
  %78 = zext i16 %77 to i32
  %79 = icmp ugt i16 %77, 255
  br i1 %79, label %70, label %._crit_edge, !llvm.loop !9

._crit_edge:                                      ; preds = %70, %65
  %.1.lcssa = phi i32 [ %.069, %65 ], [ %78, %70 ]
  %80 = getelementptr inbounds nuw i8, ptr %10, i64 84
  store i32 %.1.lcssa, ptr %80, align 4
  %81 = trunc i32 %.1.lcssa to i8
  %82 = getelementptr inbounds nuw i8, ptr %10, i64 196704
  %83 = load ptr, ptr %82, align 8
  %84 = getelementptr inbounds nuw i8, ptr %83, i64 1
  store ptr %84, ptr %82, align 8
  store i8 %81, ptr %83, align 1
  %85 = load i32, ptr %43, align 8
  %86 = getelementptr inbounds nuw i8, ptr %10, i64 64
  %87 = load i32, ptr %86, align 8
  %88 = icmp slt i32 %85, %87
  br i1 %88, label %89, label %104

89:                                               ; preds = %._crit_edge
  %90 = getelementptr inbounds nuw i8, ptr %10, i64 80
  %91 = load i32, ptr %90, align 8
  %92 = icmp sgt i32 %91, -1
  br i1 %92, label %93, label %104

93:                                               ; preds = %89
  %94 = trunc i32 %91 to i16
  %95 = getelementptr inbounds nuw i8, ptr %10, i64 65628
  %96 = sext i32 %85 to i64
  %97 = getelementptr inbounds [65536 x i16], ptr %95, i64 0, i64 %96
  store i16 %94, ptr %97, align 2
  %98 = load i32, ptr %80, align 4
  %99 = trunc i32 %98 to i8
  %100 = getelementptr inbounds nuw i8, ptr %10, i64 92
  %101 = getelementptr inbounds [65536 x i8], ptr %100, i64 0, i64 %96
  store i8 %99, ptr %101, align 1
  %102 = load i32, ptr %43, align 8
  %103 = add nsw i32 %102, 1
  store i32 %103, ptr %43, align 8
  br label %104

104:                                              ; preds = %93, %89, %._crit_edge
  %105 = phi i32 [ %103, %93 ], [ %85, %89 ], [ %85, %._crit_edge ]
  %106 = getelementptr inbounds nuw i8, ptr %10, i64 72
  %107 = load i32, ptr %106, align 8
  %108 = icmp sgt i32 %105, %107
  br i1 %108, label %109, label %120

109:                                              ; preds = %104
  %110 = load i32, ptr %9, align 4
  %111 = add nsw i32 %110, 1
  store i32 %111, ptr %9, align 4
  %112 = getelementptr inbounds nuw i8, ptr %10, i64 32
  store i64 0, ptr %112, align 8
  %113 = getelementptr inbounds nuw i8, ptr %10, i64 68
  %114 = load i32, ptr %113, align 4
  %115 = icmp eq i32 %111, %114
  br i1 %115, label %116, label %118

116:                                              ; preds = %109
  %117 = load i32, ptr %86, align 8
  br label %.sink.split

118:                                              ; preds = %109
  %notmask = shl nsw i32 -1, %111
  %119 = xor i32 %notmask, -1
  br label %.sink.split

.sink.split:                                      ; preds = %118, %116
  %.sink = phi i32 [ %117, %116 ], [ %119, %118 ]
  store i32 %.sink, ptr %106, align 8
  br label %120

120:                                              ; preds = %.sink.split, %104
  %121 = getelementptr inbounds nuw i8, ptr %10, i64 80
  store i32 %8, ptr %121, align 8
  br label %.loopexit

.loopexit:                                        ; preds = %tailrecurse, %30, %1, %120, %52
  %.068 = phi i32 [ -30, %52 ], [ 0, %120 ], [ %6, %1 ], [ %32, %30 ], [ %40, %tailrecurse ]
  ret i32 %.068
}